target datalayout = "e-m:e-p270:32:32-p271:32:32-p272:64:64-i64:64-i128:128-f80:128-n8:16:32:64-S128"
target triple = "x86_64-pc-linux-gnu"

%struct.__va_list_tag = type { i32, i32, ptr, ptr }
%struct.alphaARG = type { i32 }

@TYPE_ALPHA = dso_local global ptr @typeALPHA, align 8
@typeALPHA = internal global { i16, [6 x i8], i64, ptr, ptr, ptr, ptr, ptr, ptr, ptr, ptr, ptr } { i16 10, [6 x i8] zeroinitializer, i64 1, ptr null, ptr null, ptr @Make_Alpha_Type, ptr @Copy_Alpha_Type, ptr @Free_Alpha_Type, ptr @Check_Alpha_Field, ptr @Check_Alpha_Character, ptr null, ptr null }, align 8

; Function Attrs: nounwind uwtable
define internal ptr @Make_Alpha_Type(ptr noundef %0) #0 {
  %2 = alloca ptr, align 8
  %3 = alloca ptr, align 8
  store ptr %0, ptr %2, align 8, !tbaa !4
  call void @llvm.lifetime.start.p0(i64 8, ptr %3) #7
  %4 = call noalias ptr @malloc(i64 noundef 4) #8
  store ptr %4, ptr %3, align 8, !tbaa !9
  %5 = load ptr, ptr %3, align 8, !tbaa !9
  %6 = icmp ne ptr %5, null
  br i1 %6, label %7, label %27

7:                                                ; preds = %1
  %8 = load ptr, ptr %2, align 8, !tbaa !4
  %9 = getelementptr inbounds [1 x %struct.__va_list_tag], ptr %8, i64 0, i64 0
  %10 = getelementptr inbounds nuw %struct.__va_list_tag, ptr %9, i32 0, i32 0
  %11 = load i32, ptr %10, align 8
  %12 = icmp ule i32 %11, 40
  br i1 %12, label %13, label %18

13:                                               ; preds = %7
  %14 = getelementptr inbounds nuw %struct.__va_list_tag, ptr %9, i32 0, i32 3
  %15 = load ptr, ptr %14, align 8
  %16 = getelementptr i8, ptr %15, i32 %11
  %17 = add i32 %11, 8
  store i32 %17, ptr %10, align 8
  br label %22

18:                                               ; preds = %7
  %19 = getelementptr inbounds nuw %struct.__va_list_tag, ptr %9, i32 0, i32 2
  %20 = load ptr, ptr %19, align 8
  %21 = getelementptr i8, ptr %20, i32 8
  store ptr %21, ptr %19, align 8
  br label %22

22:                                               ; preds = %18, %13
  %23 = phi ptr [ %16, %13 ], [ %20, %18 ]
  %24 = load i32, ptr %23, align 4, !tbaa !10
  %25 = load ptr, ptr %3, align 8, !tbaa !9
  %26 = getelementptr inbounds nuw %struct.alphaARG, ptr %25, i32 0, i32 0
  store i32 %24, ptr %26, align 4, !tbaa !12
  br label %27

27:                                               ; preds = %22, %1
  %28 = load ptr, ptr %3, align 8, !tbaa !9
  call void @llvm.lifetime.end.p0(i64 8, ptr %3) #7
  ret ptr %28
}

; Function Attrs: nounwind uwtable
define internal ptr @Copy_Alpha_Type(ptr noundef %0) #0 {
  %2 = alloca ptr, align 8
  %3 = alloca ptr, align 8
  %4 = alloca ptr, align 8
  store ptr %0, ptr %2, align 8, !tbaa !9
  call void @llvm.lifetime.start.p0(i64 8, ptr %3) #7
  %5 = load ptr, ptr %2, align 8, !tbaa !9
  store ptr %5, ptr %3, align 8, !tbaa !9
  call void @llvm.lifetime.start.p0(i64 8, ptr %4) #7
  %6 = call noalias ptr @malloc(i64 noundef 4) #8
  store ptr %6, ptr %4, align 8, !tbaa !9
  %7 = load ptr, ptr %4, align 8, !tbaa !9
  %8 = icmp ne ptr %7, null
  br i1 %8, label %9, label %12

9:                                                ; preds = %1
  %10 = load ptr, ptr %4, align 8, !tbaa !9
  %11 = load ptr, ptr %3, align 8, !tbaa !9
  call void @llvm.memcpy.p0.p0.i64(ptr align 4 %10, ptr align 4 %11, i64 4, i1 false), !tbaa.struct !14
  br label %12

12:                                               ; preds = %9, %1
  %13 = load ptr, ptr %4, align 8, !tbaa !9
  call void @llvm.lifetime.end.p0(i64 8, ptr %4) #7
  call void @llvm.lifetime.end.p0(i64 8, ptr %3) #7
  ret ptr %13
}

; Function Attrs: nounwind uwtable
define internal void @Free_Alpha_Type(ptr noundef %0) #0 {
  %2 = alloca ptr, align 8
  store ptr %0, ptr %2, align 8, !tbaa !9
  %3 = load ptr, ptr %2, align 8, !tbaa !9
  %4 = icmp ne ptr %3, null
  br i1 %4, label %5, label %7

5:                                                ; preds = %1
  %6 = load ptr, ptr %2, align 8, !tbaa !9
  call void @free(ptr noundef %6) #7
  br label %7

7:                                                ; preds = %5, %1
  ret void
}

; Function Attrs: nounwind uwtable
define internal zeroext i1 @Check_Alpha_Field(ptr noundef %0, ptr noundef %1) #0 {
  %3 = alloca ptr, align 8
  %4 = alloca ptr, align 8
  %5 = alloca i32, align 4
  %6 = alloca ptr, align 8
  %7 = alloca i32, align 4
  %8 = alloca ptr, align 8
  store ptr %0, ptr %3, align 8, !tbaa !15
  store ptr %1, ptr %4, align 8, !tbaa !9
  call void @llvm.lifetime.start.p0(i64 4, ptr %5) #7
  %9 = load ptr, ptr %4, align 8, !tbaa !9
  %10 = getelementptr inbounds nuw %struct.alphaARG, ptr %9, i32 0, i32 0
  %11 = load i32, ptr %10, align 4, !tbaa !12
  store i32 %11, ptr %5, align 4, !tbaa !10
  call void @llvm.lifetime.start.p0(i64 8, ptr %6) #7
  %12 = load ptr, ptr %3, align 8, !tbaa !15
  %13 = call ptr @field_buffer(ptr noundef %12, i32 noundef 0)
  store ptr %13, ptr %6, align 8, !tbaa !17
  call void @llvm.lifetime.start.p0(i64 4, ptr %7) #7
  store i32 -1, ptr %7, align 4, !tbaa !10
  call void @llvm.lifetime.start.p0(i64 8, ptr %8) #7
  br label %14

14:                                               ; preds = %26, %2
  %15 = load ptr, ptr %6, align 8, !tbaa !17
  %16 = load i8, ptr %15, align 1, !tbaa !19
  %17 = zext i8 %16 to i32
  %18 = icmp ne i32 %17, 0
  br i1 %18, label %19, label %24

19:                                               ; preds = %14
  %20 = load ptr, ptr %6, align 8, !tbaa !17
  %21 = load i8, ptr %20, align 1, !tbaa !19
  %22 = zext i8 %21 to i32
  %23 = icmp eq i32 %22, 32
  br label %24

24:                                               ; preds = %19, %14
  %25 = phi i1 [ false, %14 ], [ %23, %19 ]
  br i1 %25, label %26, label %29

26:                                               ; preds = %24
  %27 = load ptr, ptr %6, align 8, !tbaa !17
  %28 = getelementptr inbounds nuw i8, ptr %27, i32 1
  store ptr %28, ptr %6, align 8, !tbaa !17
  br label %14, !llvm.loop !20

29:                                               ; preds = %24
  %30 = load ptr, ptr %6, align 8, !tbaa !17
  %31 = load i8, ptr %30, align 1, !tbaa !19
  %32 = icmp ne i8 %31, 0
  br i1 %32, label %33, label %80

33:                                               ; preds = %29
  %34 = load ptr, ptr %6, align 8, !tbaa !17
  store ptr %34, ptr %8, align 8, !tbaa !17
  br label %35

35:                                               ; preds = %54, %33
  %36 = load ptr, ptr %6, align 8, !tbaa !17
  %37 = load i8, ptr %36, align 1, !tbaa !19
  %38 = zext i8 %37 to i32
  %39 = icmp ne i32 %38, 0
  br i1 %39, label %40, label %52

40:                                               ; preds = %35
  %41 = call ptr @__ctype_b_loc() #9
  %42 = load ptr, ptr %41, align 8, !tbaa !22
  %43 = load ptr, ptr %6, align 8, !tbaa !17
  %44 = load i8, ptr %43, align 1, !tbaa !19
  %45 = zext i8 %44 to i32
  %46 = sext i32 %45 to i64
  %47 = getelementptr inbounds i16, ptr %42, i64 %46
  %48 = load i16, ptr %47, align 2, !tbaa !24
  %49 = zext i16 %48 to i32
  %50 = and i32 %49, 1024
  %51 = icmp ne i32 %50, 0
  br label %52

52:                                               ; preds = %40, %35
  %53 = phi i1 [ false, %35 ], [ %51, %40 ]
  br i1 %53, label %54, label %57

54:                                               ; preds = %52
  %55 = load ptr, ptr %6, align 8, !tbaa !17
  %56 = getelementptr inbounds nuw i8, ptr %55, i32 1
  store ptr %56, ptr %6, align 8, !tbaa !17
  br label %35, !llvm.loop !26

57:                                               ; preds = %52
  %58 = load ptr, ptr %6, align 8, !tbaa !17
  %59 = load ptr, ptr %8, align 8, !tbaa !17
  %60 = ptrtoint ptr %58 to i64
  %61 = ptrtoint ptr %59 to i64
  %62 = sub i64 %60, %61
  %63 = trunc i64 %62 to i32
  store i32 %63, ptr %7, align 4, !tbaa !10
  br label %64

64:                                               ; preds = %76, %57
  %65 = load ptr, ptr %6, align 8, !tbaa !17
  %66 = load i8, ptr %65, align 1, !tbaa !19
  %67 = zext i8 %66 to i32
  %68 = icmp ne i32 %67, 0
  br i1 %68, label %69, label %74

69:                                               ; preds = %64
  %70 = load ptr, ptr %6, align 8, !tbaa !17
  %71 = load i8, ptr %70, align 1, !tbaa !19
  %72 = zext i8 %71 to i32
  %73 = icmp eq i32 %72, 32
  br label %74

74:                                               ; preds = %69, %64
  %75 = phi i1 [ false, %64 ], [ %73, %69 ]
  br i1 %75, label %76, label %79

76:                                               ; preds = %74
  %77 = load ptr, ptr %6, align 8, !tbaa !17
  %78 = getelementptr inbounds nuw i8, ptr %77, i32 1
  store ptr %78, ptr %6, align 8, !tbaa !17
  br label %64, !llvm.loop !27

79:                                               ; preds = %74
  br label %80

80:                                               ; preds = %79, %29
  %81 = load ptr, ptr %6, align 8, !tbaa !17
  %82 = load i8, ptr %81, align 1, !tbaa !19
  %83 = zext i8 %82 to i32
  %84 = icmp ne i32 %83, 0
  br i1 %84, label %89, label %85

85:                                               ; preds = %80
  %86 = load i32, ptr %7, align 4, !tbaa !10
  %87 = load i32, ptr %5, align 4, !tbaa !10
  %88 = icmp slt i32 %86, %87
  br label %89

89:                                               ; preds = %85, %80
  %90 = phi i1 [ true, %80 ], [ %88, %85 ]
  %91 = select i1 %90, i32 0, i32 1
  %92 = icmp ne i32 %91, 0
  call void @llvm.lifetime.end.p0(i64 8, ptr %8) #7
  call void @llvm.lifetime.end.p0(i64 4, ptr %7) #7
  call void @llvm.lifetime.end.p0(i64 8, ptr %6) #7
  call void @llvm.lifetime.end.p0(i64 4, ptr %5) #7
  ret i1 %92
}

; Function Attrs: nounwind uwtable
define internal zeroext i1 @Check_Alpha_Character(i32 noundef %0, ptr noundef %1) #0 {
  %3 = alloca i32, align 4
  %4 = alloca ptr, align 8
  store i32 %0, ptr %3, align 4, !tbaa !10
  store ptr %1, ptr %4, align 8, !tbaa !9
  store ptr null, ptr %4, align 8, !tbaa !9
  %5 = call ptr @__ctype_b_loc() #9
  %6 = load ptr, ptr %5, align 8, !tbaa !22
  %7 = load i32, ptr %3, align 4, !tbaa !10
  %8 = sext i32 %7 to i64
  %9 = getelementptr inbounds i16, ptr %6, i64 %8
  %10 = load i16, ptr %9, align 2, !tbaa !24
  %11 = zext i16 %10 to i32
  %12 = and i32 %11, 1024
  %13 = icmp ne i32 %12, 0
  %14 = select i1 %13, i32 1, i32 0
  %15 = icmp ne i32 %14, 0
  ret i1 %15
}

; Function Attrs: nocallback nofree nosync nounwind willreturn memory(argmem: readwrite)
declare void @llvm.lifetime.start.p0(i64 immarg, ptr captures(none)) #1

; Function Attrs: nounwind allocsize(0)
declare noalias ptr @malloc(i64 noundef) #2

; Function Attrs: nocallback nofree nosync nounwind willreturn memory(argmem: readwrite)
declare void @llvm.lifetime.end.p0(i64 immarg, ptr captures(none)) #1

; Function Attrs: nocallback nofree nounwind willreturn memory(argmem: readwrite)
declare void @llvm.memcpy.p0.p0.i64(ptr noalias writeonly captures(none), ptr noalias readonly captures(none), i64, i1 immarg) #3

; Function Attrs: nounwind
declare void @free(ptr noundef) #4

declare ptr @field_buffer(ptr noundef, i32 noundef) #5

; Function Attrs: nounwind willreturn memory(none)
declare ptr @__ctype_b_loc() #6


!llvm.module.flags = !{!0, !1, !2, !3}

!0 = !{i32 1, !"wchar_size", i32 4}
!1 = !{i32 8, !"PIC Level", i32 2}
!2 = !{i32 7, !"PIE Level", i32 2}
!3 = !{i32 7, !"uwtable", i32 2}
!4 = !{!5, !5, i64 0}
!5 = !{!"p1 _ZTS13__va_list_tag", !6, i64 0}
!6 = !{!"any pointer", !7, i64 0}
!7 = !{!"omnipotent char", !8, i64 0}
!8 = !{!"Simple C/C++ TBAA"}
!9 = !{!6, !6, i64 0}
!10 = !{!11, !11, i64 0}
!11 = !{!"int", !7, i64 0}
!12 = !{!13, !11, i64 0}
!13 = !{!"", !11, i64 0}
!14 = !{i64 0, i64 4, !10}
!15 = !{!16, !16, i64 0}
!16 = !{!"p1 _ZTS9fieldnode", !6, i64 0}
!17 = !{!18, !18, i64 0}
!18 = !{!"p1 omnipotent char", !6, i64 0}
!19 = !{!7, !7, i64 0}
!20 = distinct !{!20, !21}
!21 = !{!"llvm.loop.mustprogress"}
!22 = !{!23, !23, i64 0}
!23 = !{!"p1 short", !6, i64 0}
!24 = !{!25, !25, i64 0}
!25 = !{!"short", !7, i64 0}
!26 = distinct !{!26, !21}
!27 = distinct !{!27, !21}
